
fpu_test.o:     file format elf64-x86-64


Disassembly of section .text:

0000000000000000 <main>:
   0:	55                   	push   %rbp
   1:	48 89 e5             	mov    %rsp,%rbp
   4:	48 83 ec 20          	sub    $0x20,%rsp
   8:	f3 0f 10 05 00 00 00 	movss  0x0(%rip),%xmm0        # 10 <main+0x10>
   f:	00 
  10:	f3 0f 11 45 e8       	movss  %xmm0,-0x18(%rbp)
  15:	f3 0f 10 05 00 00 00 	movss  0x0(%rip),%xmm0        # 1d <main+0x1d>
  1c:	00 
  1d:	f3 0f 11 45 ec       	movss  %xmm0,-0x14(%rbp)
  22:	f3 0f 10 45 e8       	movss  -0x18(%rbp),%xmm0
  27:	f3 0f 58 45 ec       	addss  -0x14(%rbp),%xmm0
  2c:	f3 0f 11 45 f0       	movss  %xmm0,-0x10(%rbp)
  31:	f3 0f 10 45 e8       	movss  -0x18(%rbp),%xmm0
  36:	f3 0f 5c 45 ec       	subss  -0x14(%rbp),%xmm0
  3b:	f3 0f 11 45 f4       	movss  %xmm0,-0xc(%rbp)
  40:	f3 0f 10 45 e8       	movss  -0x18(%rbp),%xmm0
  45:	f3 0f 59 45 ec       	mulss  -0x14(%rbp),%xmm0
  4a:	f3 0f 11 45 f8       	movss  %xmm0,-0x8(%rbp)
  4f:	f3 0f 10 45 e8       	movss  -0x18(%rbp),%xmm0
  54:	f3 0f 5e 45 ec       	divss  -0x14(%rbp),%xmm0
  59:	f3 0f 11 45 fc       	movss  %xmm0,-0x4(%rbp)
  5e:	f3 0f 5a 45 f0       	cvtss2sd -0x10(%rbp),%xmm0
  63:	48 8d 3d 00 00 00 00 	lea    0x0(%rip),%rdi        # 6a <main+0x6a>
  6a:	b8 01 00 00 00       	mov    $0x1,%eax
  6f:	e8 00 00 00 00       	callq  74 <main+0x74>
  74:	f3 0f 5a 45 f4       	cvtss2sd -0xc(%rbp),%xmm0
  79:	48 8d 3d 00 00 00 00 	lea    0x0(%rip),%rdi        # 80 <main+0x80>
  80:	b8 01 00 00 00       	mov    $0x1,%eax
  85:	e8 00 00 00 00       	callq  8a <main+0x8a>
  8a:	f3 0f 5a 45 f8       	cvtss2sd -0x8(%rbp),%xmm0
  8f:	48 8d 3d 00 00 00 00 	lea    0x0(%rip),%rdi        # 96 <main+0x96>
  96:	b8 01 00 00 00       	mov    $0x1,%eax
  9b:	e8 00 00 00 00       	callq  a0 <main+0xa0>
  a0:	f3 0f 5a 45 fc       	cvtss2sd -0x4(%rbp),%xmm0
  a5:	48 8d 3d 00 00 00 00 	lea    0x0(%rip),%rdi        # ac <main+0xac>
  ac:	b8 01 00 00 00       	mov    $0x1,%eax
  b1:	e8 00 00 00 00       	callq  b6 <main+0xb6>
  b6:	b8 00 00 00 00       	mov    $0x0,%eax
  bb:	c9                   	leaveq 
  bc:	c3                   	retq   
